target datalayout = "e-m:e-p270:32:32-p271:32:32-p272:64:64-i64:64-i128:128-f80:128-n8:16:32:64-S128"
target triple = "x86_64-pc-linux-gnu"

%struct.JSValue = type { %union.JSValueUnion, i64 }
%union.JSValueUnion = type { double }
%struct.timespec = type { i64, i64 }

; Function Attrs: nounwind uwtable
define internal i64 @js_get_errno(i64 noundef %0) #0 {
  %2 = alloca i64, align 8
  store i64 %0, ptr %2, align 8
  %3 = load i64, ptr %2, align 8
  %4 = icmp eq i64 %3, -1
  br i1 %4, label %5, label %10

5:                                                ; preds = %1
  %6 = call ptr @__errno_location() #10
  %7 = load i32, ptr %6, align 4
  %8 = sub i32 0, %7
  %9 = sext i32 %8 to i64
  store i64 %9, ptr %2, align 8
  br label %10

10:                                               ; preds = %5, %1
  %11 = load i64, ptr %2, align 8
  ret i64 %11
}

; Function Attrs: nounwind uwtable
define internal { i64, i64 } @js_os_sleep(ptr noundef %0, i64 %1, i64 %2, i32 noundef %3, ptr noundef %4) #0 {
  %6 = alloca %struct.JSValue, align 8
  %7 = alloca ptr, align 8
  %8 = alloca i32, align 4
  %9 = alloca %struct.JSValue, align 8
  %10 = alloca %struct.JSValue, align 8
  %11 = alloca ptr, align 8
  %12 = alloca i32, align 4
  %13 = alloca ptr, align 8
  %14 = alloca i64, align 8
  %15 = alloca i32, align 4
  %16 = alloca %struct.timespec, align 8
  %17 = getelementptr inbounds { i64, i64 }, ptr %10, i32 0, i32 0
  store i64 %1, ptr %17, align 8
  %18 = getelementptr inbounds { i64, i64 }, ptr %10, i32 0, i32 1
  store i64 %2, ptr %18, align 8
  store ptr %0, ptr %11, align 8
  store i32 %3, ptr %12, align 4
  store ptr %4, ptr %13, align 8
  %19 = load ptr, ptr %11, align 8
  %20 = load ptr, ptr %13, align 8
  %21 = getelementptr %struct.JSValue, ptr %20, i64 0
  %22 = getelementptr inbounds { i64, i64 }, ptr %21, i32 0, i32 0
  %23 = load i64, ptr %22, align 8
  %24 = getelementptr inbounds { i64, i64 }, ptr %21, i32 0, i32 1
  %25 = load i64, ptr %24, align 8
  %26 = call i32 @JS_ToInt64(ptr noundef %19, ptr noundef %14, i64 %23, i64 %25)
  %27 = icmp ne i32 %26, 0
  br i1 %27, label %28, label %31

28:                                               ; preds = %5
  %29 = getelementptr inbounds %struct.JSValue, ptr %9, i32 0, i32 0
  store i32 0, ptr %29, align 8
  %30 = getelementptr inbounds %struct.JSValue, ptr %9, i32 0, i32 1
  store i64 6, ptr %30, align 8
  br label %56

31:                                               ; preds = %5
  %32 = load i64, ptr %14, align 8
  %33 = icmp slt i64 %32, 0
  br i1 %33, label %34, label %35

34:                                               ; preds = %31
  store i64 0, ptr %14, align 8
  br label %35

35:                                               ; preds = %34, %31
  %36 = load i64, ptr %14, align 8
  %37 = sdiv i64 %36, 1000
  %38 = getelementptr inbounds %struct.timespec, ptr %16, i32 0, i32 0
  store i64 %37, ptr %38, align 8
  %39 = load i64, ptr %14, align 8
  %40 = srem i64 %39, 1000
  %41 = mul i64 %40, 1000000
  %42 = getelementptr inbounds %struct.timespec, ptr %16, i32 0, i32 1
  store i64 %41, ptr %42, align 8
  %43 = call i32 @nanosleep(ptr noundef %16, ptr noundef null)
  %44 = sext i32 %43 to i64
  %45 = call i64 @js_get_errno(i64 noundef %44)
  %46 = trunc i64 %45 to i32
  store i32 %46, ptr %15, align 4
  %47 = load ptr, ptr %11, align 8
  %48 = load i32, ptr %15, align 4
  store ptr %47, ptr %7, align 8
  store i32 %48, ptr %8, align 4
  %49 = load i32, ptr %8, align 4
  store i32 %49, ptr %6, align 8
  %50 = getelementptr inbounds %struct.JSValue, ptr %6, i32 0, i32 1
  store i64 0, ptr %50, align 8
  %51 = load { i64, i64 }, ptr %6, align 8
  %52 = getelementptr inbounds { i64, i64 }, ptr %9, i32 0, i32 0
  %53 = extractvalue { i64, i64 } %51, 0
  store i64 %53, ptr %52, align 8
  %54 = getelementptr inbounds { i64, i64 }, ptr %9, i32 0, i32 1
  %55 = extractvalue { i64, i64 } %51, 1
  store i64 %55, ptr %54, align 8
  br label %56

56:                                               ; preds = %35, %28
  %57 = load { i64, i64 }, ptr %9, align 8
  ret { i64, i64 } %57
}