; Function Attrs: nounwind uwtable
define internal { i64, i64 } @js_os_sleep(ptr noundef %0, i64 %1, i64 %2, i32 %3, ptr nocapture noundef readonly %4) #0 {
  %6 = alloca i64, align 8
  %7 = alloca %struct.timespec, align 8
  %8 = load i64, ptr %4, align 8
  %9 = getelementptr inbounds i8, ptr %4, i64 8
  %10 = load i64, ptr %9, align 8
  %11 = call i32 @JS_ToInt64(ptr noundef %0, ptr noundef nonnull %6, i64 %8, i64 %10) #29
  %.not = icmp eq i32 %11, 0
  br i1 %.not, label %12, label %28

12:                                               ; preds = %5
  %13 = load i64, ptr %6, align 8
  %14 = icmp slt i64 %13, 0
  br i1 %14, label %15, label %16

15:                                               ; preds = %12
  store i64 0, ptr %6, align 8
  br label %16

16:                                               ; preds = %15, %12
  %17 = phi i64 [ 0, %15 ], [ %13, %12 ]
  %18 = udiv i64 %17, 1000
  store i64 %18, ptr %7, align 8
  %19 = urem i64 %17, 1000
  %20 = mul nuw nsw i64 %19, 1000000
  %21 = getelementptr inbounds i8, ptr %7, i64 8
  store i64 %20, ptr %21, align 8
  %22 = call i32 @nanosleep(ptr noundef nonnull %7, ptr noundef null) #29
  %23 = icmp eq i32 %22, -1
  br i1 %23, label %24, label %js_get_errno.exit

24:                                               ; preds = %16
  %25 = tail call ptr @__errno_location() #28
  %26 = load i32, ptr %25, align 4
  %27 = sub i32 0, %26
  br label %js_get_errno.exit

js_get_errno.exit:                                ; preds = %16, %24
  %.0.i.in = phi i32 [ %27, %24 ], [ %22, %16 ]
  %.0.i = zext i32 %.0.i.in to i64
  br label %28

28:                                               ; preds = %5, %js_get_errno.exit
  %.sroa.03.0 = phi i64 [ %.0.i, %js_get_errno.exit ], [ 0, %5 ]
  %.sroa.3.sroa.2.0 = phi i64 [ 0, %js_get_errno.exit ], [ 6, %5 ]
  %.fca.0.insert = insertvalue { i64, i64 } poison, i64 %.sroa.03.0, 0
  %.fca.1.insert = insertvalue { i64, i64 } %.fca.0.insert, i64 %.sroa.3.sroa.2.0, 1
  ret { i64, i64 } %.fca.1.insert
}